; Function Attrs: mustprogress nounwind uwtable
define internal fastcc void @_ZN12_GLOBAL__N_117OMPClauseProfiler18VisitOMPFromClauseEPKN5clang13OMPFromClauseE(ptr noundef nonnull readonly align 8 captures(none) dereferenceable(8) %0, ptr noundef nonnull readonly %1) unnamed_addr #0 align 2 {
  %3 = getelementptr inbounds nuw i8, ptr %1, i64 16
  %4 = load i32, ptr %3, align 4
  %5 = zext i32 %4 to i64
  %.idx = shl nuw nsw i64 %5, 3
  %6 = getelementptr inbounds nuw i8, ptr %1, i64 %.idx
  %.ptr4 = getelementptr inbounds nuw i8, ptr %6, i64 104
  %.not.i2 = icmp eq i32 %4, 0
  br i1 %.not.i2, label %_ZN12_GLOBAL__N_117OMPClauseProfiler18VisitOMPClauseListIKN5clang13OMPFromClauseEEEvPT_.exit, label %.lr.ph.preheader

.lr.ph.preheader:                                 ; preds = %2
  %.ptr = getelementptr inbounds nuw i8, ptr %1, i64 104
  br label %.lr.ph

.lr.ph:                                           ; preds = %.lr.ph.preheader, %10
  %.0.i3 = phi ptr [ %11, %10 ], [ %.ptr, %.lr.ph.preheader ]
  %7 = load ptr, ptr %.0.i3, align 8
  %.not11.i = icmp eq ptr %7, null
  br i1 %.not11.i, label %10, label %8

8:                                                ; preds = %.lr.ph
  %9 = load ptr, ptr %0, align 8
  tail call fastcc void @_ZN12_GLOBAL__N_112StmtProfiler9VisitStmtEPKN5clang4StmtE(ptr noundef nonnull align 8 dereferenceable(18) %9, ptr noundef nonnull %7)
  br label %10

10:                                               ; preds = %8, %.lr.ph
  %11 = getelementptr inbounds nuw i8, ptr %.0.i3, i64 8
  %.not.i = icmp eq ptr %11, %.ptr4
  br i1 %.not.i, label %_ZN12_GLOBAL__N_117OMPClauseProfiler18VisitOMPClauseListIKN5clang13OMPFromClauseEEEvPT_.exit, label %.lr.ph

_ZN12_GLOBAL__N_117OMPClauseProfiler18VisitOMPClauseListIKN5clang13OMPFromClauseEEEvPT_.exit: ; preds = %10, %2
  ret void
}